target datalayout = "e-m:e-p270:32:32-p271:32:32-p272:64:64-i64:64-i128:128-f80:128-n8:16:32:64-S128"
target triple = "x86_64-unknown-linux-gnu"

%"struct.std::_Rb_tree_header" = type { %"struct.std::_Rb_tree_node_base", i64 }
%"struct.std::_Rb_tree_node_base" = type { i32, ptr, ptr, ptr }
%"class.std::_Function_base" = type { %"union.std::_Any_data", ptr }
%"union.std::_Any_data" = type { %"union.std::_Nocopy_types" }
%"union.std::_Nocopy_types" = type { { i64, i64 } }
%"class.std::multimap" = type { %"class.std::_Rb_tree.27" }
%"class.std::_Rb_tree.27" = type { %"struct.std::_Rb_tree<std::__cxx11::basic_string<char>, std::pair<const std::__cxx11::basic_string<char>, std::__cxx11::basic_string<char>>, std::_Select1st<std::pair<const std::__cxx11::basic_string<char>, std::__cxx11::basic_string<char>>>, httplib::detail::ci>::_Rb_tree_impl" }
%"struct.std::_Rb_tree<std::__cxx11::basic_string<char>, std::pair<const std::__cxx11::basic_string<char>, std::__cxx11::basic_string<char>>, std::_Select1st<std::pair<const std::__cxx11::basic_string<char>, std::__cxx11::basic_string<char>>>, httplib::detail::ci>::_Rb_tree_impl" = type { %"struct.std::_Rb_tree_key_compare.28", %"struct.std::_Rb_tree_header" }
%"struct.std::_Rb_tree_key_compare.28" = type { %"struct.httplib::detail::ci" }
%"struct.httplib::detail::ci" = type { i8 }
%"class.std::function.50" = type { %"class.std::_Function_base", ptr }
%"class.std::function.58" = type { %"class.std::_Function_base", ptr }
%"class.httplib::Result" = type { %"class.std::unique_ptr.121", i32, %"class.std::multimap" }
%"class.std::unique_ptr.121" = type { %"struct.std::__uniq_ptr_data.122" }
%"struct.std::__uniq_ptr_data.122" = type { %"class.std::__uniq_ptr_impl.123" }
%"class.std::__uniq_ptr_impl.123" = type { %"class.std::tuple.124" }
%"class.std::tuple.124" = type { %"struct.std::_Tuple_impl.125" }
%"struct.std::_Tuple_impl.125" = type { %"struct.std::_Head_base.128" }
%"struct.std::_Head_base.128" = type { ptr }
%"class.std::unique_ptr.351" = type { %"struct.std::__uniq_ptr_data.352" }
%"struct.std::__uniq_ptr_data.352" = type { %"class.std::__uniq_ptr_impl.353" }
%"class.std::__uniq_ptr_impl.353" = type { %"class.std::tuple.354" }
%"class.std::tuple.354" = type { %"struct.std::_Tuple_impl.355" }
%"struct.std::_Tuple_impl.355" = type { %"struct.std::_Head_base.358" }
%"struct.std::_Head_base.358" = type { ptr }
%"class.httplib::Client" = type <{ %"class.std::unique_ptr.351", i8, [7 x i8] }>

; Function Attrs: mustprogress nounwind uwtable
define linkonce_odr noundef nonnull align 8 dereferenceable(8) ptr @_ZNSt10_Head_baseILm0EPN7httplib10ClientImplELb0EE7_M_headERKS3_(ptr noundef nonnull align 8 dereferenceable(8) %__b) #4 comdat align 2 {
entry:
  %__b.addr = alloca ptr, align 8
  store ptr %__b, ptr %__b.addr, align 8
  %0 = load ptr, ptr %__b.addr, align 8
  %_M_head_impl = getelementptr inbounds %"struct.std::_Head_base.358", ptr %0, i32 0, i32 0
  ret ptr %_M_head_impl
}

; Function Attrs: mustprogress nounwind uwtable
define linkonce_odr noundef nonnull align 8 dereferenceable(8) ptr @_ZNSt11_Tuple_implILm0EJPN7httplib10ClientImplESt14default_deleteIS1_EEE7_M_headERKS5_(ptr noundef nonnull align 8 dereferenceable(8) %__t) #4 comdat align 2 {
entry:
  %__t.addr = alloca ptr, align 8
  store ptr %__t, ptr %__t.addr, align 8
  %0 = load ptr, ptr %__t.addr, align 8
  %call = call noundef nonnull align 8 dereferenceable(8) ptr @_ZNSt10_Head_baseILm0EPN7httplib10ClientImplELb0EE7_M_headERKS3_(ptr noundef nonnull align 8 dereferenceable(8) %0) #3
  ret ptr %call
}

; Function Attrs: mustprogress nounwind uwtable
define linkonce_odr noundef nonnull align 8 dereferenceable(8) ptr @_ZSt12__get_helperILm0EPN7httplib10ClientImplEJSt14default_deleteIS1_EEERKT0_RKSt11_Tuple_implIXT_EJS5_DpT1_EE(ptr noundef nonnull align 8 dereferenceable(8) %__t) #4 comdat {
entry:
  %__t.addr = alloca ptr, align 8
  store ptr %__t, ptr %__t.addr, align 8
  %0 = load ptr, ptr %__t.addr, align 8
  %call = call noundef nonnull align 8 dereferenceable(8) ptr @_ZNSt11_Tuple_implILm0EJPN7httplib10ClientImplESt14default_deleteIS1_EEE7_M_headERKS5_(ptr noundef nonnull align 8 dereferenceable(8) %0) #3
  ret ptr %call
}

; Function Attrs: mustprogress nounwind uwtable
define linkonce_odr noundef nonnull align 8 dereferenceable(8) ptr @_ZSt3getILm0EJPN7httplib10ClientImplESt14default_deleteIS1_EEERKNSt13tuple_elementIXT_ESt5tupleIJDpT0_EEE4typeERKS9_(ptr noundef nonnull align 8 dereferenceable(8) %__t) #4 comdat {
entry:
  %__t.addr = alloca ptr, align 8
  store ptr %__t, ptr %__t.addr, align 8
  %0 = load ptr, ptr %__t.addr, align 8
  %call = call noundef nonnull align 8 dereferenceable(8) ptr @_ZSt12__get_helperILm0EPN7httplib10ClientImplEJSt14default_deleteIS1_EEERKT0_RKSt11_Tuple_implIXT_EJS5_DpT1_EE(ptr noundef nonnull align 8 dereferenceable(8) %0) #3
  ret ptr %call
}

; Function Attrs: mustprogress nounwind uwtable
define linkonce_odr noundef zeroext i1 @_ZNKSt14_Function_base8_M_emptyEv(ptr noundef nonnull align 8 dereferenceable(24) %this) #4 comdat align 2 {
entry:
  %this.addr = alloca ptr, align 8
  store ptr %this, ptr %this.addr, align 8
  %this1 = load ptr, ptr %this.addr, align 8
  %_M_manager = getelementptr inbounds %"class.std::_Function_base", ptr %this1, i32 0, i32 1
  %0 = load ptr, ptr %_M_manager, align 8
  %tobool = icmp ne ptr %0, null
  %lnot = xor i1 %tobool, true
  ret i1 %lnot
}

; Function Attrs: mustprogress nounwind uwtable
define linkonce_odr noundef ptr @_ZNKSt15__uniq_ptr_implIN7httplib10ClientImplESt14default_deleteIS1_EE6_M_ptrEv(ptr noundef nonnull align 8 dereferenceable(8) %this) #4 comdat align 2 {
entry:
  %this.addr = alloca ptr, align 8
  store ptr %this, ptr %this.addr, align 8
  %this1 = load ptr, ptr %this.addr, align 8
  %_M_t = getelementptr inbounds %"class.std::__uniq_ptr_impl.353", ptr %this1, i32 0, i32 0
  %call = call noundef nonnull align 8 dereferenceable(8) ptr @_ZSt3getILm0EJPN7httplib10ClientImplESt14default_deleteIS1_EEERKNSt13tuple_elementIXT_ESt5tupleIJDpT0_EEE4typeERKS9_(ptr noundef nonnull align 8 dereferenceable(8) %_M_t) #3
  %0 = load ptr, ptr %call, align 8
  ret ptr %0
}

; Function Attrs: mustprogress nounwind uwtable
define linkonce_odr void @_ZNSt14_Function_baseD2Ev(ptr noundef nonnull align 8 dereferenceable(24) %this) unnamed_addr #4 comdat align 2 personality ptr @__gxx_personality_v0 {
entry:
  %this.addr = alloca ptr, align 8
  store ptr %this, ptr %this.addr, align 8
  %this1 = load ptr, ptr %this.addr, align 8
  %_M_manager = getelementptr inbounds %"class.std::_Function_base", ptr %this1, i32 0, i32 1
  %0 = load ptr, ptr %_M_manager, align 8
  %tobool = icmp ne ptr %0, null
  br i1 %tobool, label %if.then, label %if.end

if.then:                                          ; preds = %entry
  %_M_manager2 = getelementptr inbounds %"class.std::_Function_base", ptr %this1, i32 0, i32 1
  %1 = load ptr, ptr %_M_manager2, align 8
  %_M_functor = getelementptr inbounds %"class.std::_Function_base", ptr %this1, i32 0, i32 0
  %_M_functor3 = getelementptr inbounds %"class.std::_Function_base", ptr %this1, i32 0, i32 0
  %call = invoke noundef zeroext i1 %1(ptr noundef nonnull align 8 dereferenceable(16) %_M_functor, ptr noundef nonnull align 8 dereferenceable(16) %_M_functor3, i32 noundef 3)
          to label %invoke.cont unwind label %terminate.lpad

invoke.cont:                                      ; preds = %if.then
  br label %if.end

if.end:                                           ; preds = %invoke.cont, %entry
  ret void

terminate.lpad:                                   ; preds = %if.then
  %2 = landingpad { ptr, i32 }
          catch ptr null
  %3 = extractvalue { ptr, i32 } %2, 0
  call void @__clang_call_terminate(ptr %3) #22
  unreachable
}

; Function Attrs: mustprogress nounwind uwtable
define linkonce_odr noundef zeroext i1 @_ZNKSt8functionIFbPKcmEEcvbEv(ptr noundef nonnull align 8 dereferenceable(32) %this) #4 comdat align 2 {
entry:
  %this.addr = alloca ptr, align 8
  store ptr %this, ptr %this.addr, align 8
  %this1 = load ptr, ptr %this.addr, align 8
  %call = call noundef zeroext i1 @_ZNKSt14_Function_base8_M_emptyEv(ptr noundef nonnull align 8 dereferenceable(24) %this1)
  %lnot = xor i1 %call, true
  ret i1 %lnot
}

; Function Attrs: mustprogress nounwind uwtable
define linkonce_odr noundef zeroext i1 @_ZNKSt8functionIFbRKN7httplib8ResponseEEEcvbEv(ptr noundef nonnull align 8 dereferenceable(32) %this) #4 comdat align 2 {
entry:
  %this.addr = alloca ptr, align 8
  store ptr %this, ptr %this.addr, align 8
  %this1 = load ptr, ptr %this.addr, align 8
  %call = call noundef zeroext i1 @_ZNKSt14_Function_base8_M_emptyEv(ptr noundef nonnull align 8 dereferenceable(24) %this1)
  %lnot = xor i1 %call, true
  ret i1 %lnot
}

; Function Attrs: mustprogress nounwind uwtable
define linkonce_odr void @_ZNSt14_Function_baseC2Ev(ptr noundef nonnull align 8 dereferenceable(24) %this) unnamed_addr #4 comdat align 2 {
entry:
  %this.addr = alloca ptr, align 8
  store ptr %this, ptr %this.addr, align 8
  %this1 = load ptr, ptr %this.addr, align 8
  %_M_functor = getelementptr inbounds %"class.std::_Function_base", ptr %this1, i32 0, i32 0
  store ptr null, ptr %_M_functor, align 8
  %_M_manager = getelementptr inbounds %"class.std::_Function_base", ptr %this1, i32 0, i32 1
  store ptr null, ptr %_M_manager, align 8
  ret void
}

; Function Attrs: mustprogress nounwind uwtable
define linkonce_odr noundef ptr @_ZNKSt10unique_ptrIN7httplib10ClientImplESt14default_deleteIS1_EE3getEv(ptr noundef nonnull align 8 dereferenceable(8) %this) #4 comdat align 2 {
entry:
  %this.addr = alloca ptr, align 8
  store ptr %this, ptr %this.addr, align 8
  %this1 = load ptr, ptr %this.addr, align 8
  %_M_t = getelementptr inbounds %"class.std::unique_ptr.351", ptr %this1, i32 0, i32 0
  %call = call noundef ptr @_ZNKSt15__uniq_ptr_implIN7httplib10ClientImplESt14default_deleteIS1_EE6_M_ptrEv(ptr noundef nonnull align 8 dereferenceable(8) %_M_t) #3
  ret ptr %call
}

; Function Attrs: mustprogress nounwind uwtable
define linkonce_odr void @_ZNSt8functionIFbRKN7httplib8ResponseEEED2Ev(ptr noundef nonnull align 8 dereferenceable(32) %this) unnamed_addr #4 comdat align 2 {
entry:
  %this.addr = alloca ptr, align 8
  store ptr %this, ptr %this.addr, align 8
  %this1 = load ptr, ptr %this.addr, align 8
  call void @_ZNSt14_Function_baseD2Ev(ptr noundef nonnull align 8 dereferenceable(24) %this1) #3
  ret void
}

; Function Attrs: mustprogress nounwind uwtable
define linkonce_odr void @_ZNSt8functionIFbPKcmEED2Ev(ptr noundef nonnull align 8 dereferenceable(32) %this) unnamed_addr #4 comdat align 2 {
entry:
  %this.addr = alloca ptr, align 8
  store ptr %this, ptr %this.addr, align 8
  %this1 = load ptr, ptr %this.addr, align 8
  call void @_ZNSt14_Function_baseD2Ev(ptr noundef nonnull align 8 dereferenceable(24) %this1) #3
  ret void
}

; Function Attrs: mustprogress nounwind uwtable
define linkonce_odr void @_ZNSt8functionIFbPKcmEEC2EOS3_(ptr noundef nonnull align 8 dereferenceable(32) %this, ptr noundef nonnull align 8 dereferenceable(32) %__x) unnamed_addr #4 comdat align 2 {
entry:
  %this.addr = alloca ptr, align 8
  %__x.addr = alloca ptr, align 8
  store ptr %this, ptr %this.addr, align 8
  store ptr %__x, ptr %__x.addr, align 8
  %this1 = load ptr, ptr %this.addr, align 8
  %0 = getelementptr inbounds i8, ptr %this1, i64 0
  call void @llvm.memset.p0.i64(ptr align 8 %0, i8 0, i64 24, i1 false)
  call void @_ZNSt14_Function_baseC2Ev(ptr noundef nonnull align 8 dereferenceable(24) %this1) #3
  %_M_invoker = getelementptr inbounds %"class.std::function.58", ptr %this1, i32 0, i32 1
  %1 = load ptr, ptr %__x.addr, align 8
  %_M_invoker2 = getelementptr inbounds %"class.std::function.58", ptr %1, i32 0, i32 1
  %2 = load ptr, ptr %_M_invoker2, align 8
  store ptr %2, ptr %_M_invoker, align 8
  %3 = load ptr, ptr %__x.addr, align 8
  %call = call noundef zeroext i1 @_ZNKSt8functionIFbPKcmEEcvbEv(ptr noundef nonnull align 8 dereferenceable(32) %3) #3
  br i1 %call, label %if.then, label %if.end

if.then:                                          ; preds = %entry
  %4 = load ptr, ptr %__x.addr, align 8
  %_M_functor = getelementptr inbounds %"class.std::_Function_base", ptr %4, i32 0, i32 0
  %_M_functor3 = getelementptr inbounds %"class.std::_Function_base", ptr %this1, i32 0, i32 0
  call void @llvm.memcpy.p0.p0.i64(ptr align 8 %_M_functor3, ptr align 8 %_M_functor, i64 16, i1 false)
  %5 = load ptr, ptr %__x.addr, align 8
  %_M_manager = getelementptr inbounds %"class.std::_Function_base", ptr %5, i32 0, i32 1
  %6 = load ptr, ptr %_M_manager, align 8
  %_M_manager4 = getelementptr inbounds %"class.std::_Function_base", ptr %this1, i32 0, i32 1
  store ptr %6, ptr %_M_manager4, align 8
  %7 = load ptr, ptr %__x.addr, align 8
  %_M_manager5 = getelementptr inbounds %"class.std::_Function_base", ptr %7, i32 0, i32 1
  store ptr null, ptr %_M_manager5, align 8
  %8 = load ptr, ptr %__x.addr, align 8
  %_M_invoker6 = getelementptr inbounds %"class.std::function.58", ptr %8, i32 0, i32 1
  store ptr null, ptr %_M_invoker6, align 8
  br label %if.end

if.end:                                           ; preds = %if.then, %entry
  ret void
}

; Function Attrs: mustprogress nounwind uwtable
define linkonce_odr void @_ZNSt8functionIFbRKN7httplib8ResponseEEEC2EOS5_(ptr noundef nonnull align 8 dereferenceable(32) %this, ptr noundef nonnull align 8 dereferenceable(32) %__x) unnamed_addr #4 comdat align 2 {
entry:
  %this.addr = alloca ptr, align 8
  %__x.addr = alloca ptr, align 8
  store ptr %this, ptr %this.addr, align 8
  store ptr %__x, ptr %__x.addr, align 8
  %this1 = load ptr, ptr %this.addr, align 8
  %0 = getelementptr inbounds i8, ptr %this1, i64 0
  call void @llvm.memset.p0.i64(ptr align 8 %0, i8 0, i64 24, i1 false)
  call void @_ZNSt14_Function_baseC2Ev(ptr noundef nonnull align 8 dereferenceable(24) %this1) #3
  %_M_invoker = getelementptr inbounds %"class.std::function.50", ptr %this1, i32 0, i32 1
  %1 = load ptr, ptr %__x.addr, align 8
  %_M_invoker2 = getelementptr inbounds %"class.std::function.50", ptr %1, i32 0, i32 1
  %2 = load ptr, ptr %_M_invoker2, align 8
  store ptr %2, ptr %_M_invoker, align 8
  %3 = load ptr, ptr %__x.addr, align 8
  %call = call noundef zeroext i1 @_ZNKSt8functionIFbRKN7httplib8ResponseEEEcvbEv(ptr noundef nonnull align 8 dereferenceable(32) %3) #3
  br i1 %call, label %if.then, label %if.end

if.then:                                          ; preds = %entry
  %4 = load ptr, ptr %__x.addr, align 8
  %_M_functor = getelementptr inbounds %"class.std::_Function_base", ptr %4, i32 0, i32 0
  %_M_functor3 = getelementptr inbounds %"class.std::_Function_base", ptr %this1, i32 0, i32 0
  call void @llvm.memcpy.p0.p0.i64(ptr align 8 %_M_functor3, ptr align 8 %_M_functor, i64 16, i1 false)
  %5 = load ptr, ptr %__x.addr, align 8
  %_M_manager = getelementptr inbounds %"class.std::_Function_base", ptr %5, i32 0, i32 1
  %6 = load ptr, ptr %_M_manager, align 8
  %_M_manager4 = getelementptr inbounds %"class.std::_Function_base", ptr %this1, i32 0, i32 1
  store ptr %6, ptr %_M_manager4, align 8
  %7 = load ptr, ptr %__x.addr, align 8
  %_M_manager5 = getelementptr inbounds %"class.std::_Function_base", ptr %7, i32 0, i32 1
  store ptr null, ptr %_M_manager5, align 8
  %8 = load ptr, ptr %__x.addr, align 8
  %_M_invoker6 = getelementptr inbounds %"class.std::function.50", ptr %8, i32 0, i32 1
  store ptr null, ptr %_M_invoker6, align 8
  br label %if.end

if.end:                                           ; preds = %if.then, %entry
  ret void
}

; Function Attrs: mustprogress nounwind uwtable
define linkonce_odr noundef ptr @_ZNKSt10unique_ptrIN7httplib10ClientImplESt14default_deleteIS1_EEptEv(ptr noundef nonnull align 8 dereferenceable(8) %this) #4 comdat align 2 {
entry:
  %this.addr = alloca ptr, align 8
  store ptr %this, ptr %this.addr, align 8
  %this1 = load ptr, ptr %this.addr, align 8
  %call = call noundef ptr @_ZNKSt10unique_ptrIN7httplib10ClientImplESt14default_deleteIS1_EE3getEv(ptr noundef nonnull align 8 dereferenceable(8) %this1) #3
  ret ptr %call
}

; Function Attrs: mustprogress uwtable
define void @_ZN7httplib6Client3GetERKNSt7__cxx1112basic_stringIcSt11char_traitsIcESaIcEEESt8functionIFbRKNS_8ResponseEEES9_IFbPKcmEE(ptr noalias sret(%"class.httplib::Result") align 8 %agg.result, ptr noundef nonnull align 8 dereferenceable(9) %this, ptr noundef nonnull align 8 dereferenceable(32) %path, ptr noundef %response_handler, ptr noundef %content_receiver) #6 align 2 personality ptr @__gxx_personality_v0 {
entry:
  %result.ptr = alloca ptr, align 8
  %this.addr = alloca ptr, align 8
  %path.addr = alloca ptr, align 8
  %response_handler.indirect_addr = alloca ptr, align 8
  %content_receiver.indirect_addr = alloca ptr, align 8
  %agg.tmp = alloca %"class.std::function.50", align 8
  %agg.tmp2 = alloca %"class.std::function.58", align 8
  %exn.slot = alloca ptr, align 8
  %ehselector.slot = alloca i32, align 4
  store ptr %agg.result, ptr %result.ptr, align 8
  store ptr %this, ptr %this.addr, align 8
  store ptr %path, ptr %path.addr, align 8
  store ptr %response_handler, ptr %response_handler.indirect_addr, align 8
  store ptr %content_receiver, ptr %content_receiver.indirect_addr, align 8
  %this1 = load ptr, ptr %this.addr, align 8
  %cli_ = getelementptr inbounds %"class.httplib::Client", ptr %this1, i32 0, i32 0
  %call = call noundef ptr @_ZNKSt10unique_ptrIN7httplib10ClientImplESt14default_deleteIS1_EEptEv(ptr noundef nonnull align 8 dereferenceable(8) %cli_) #3
  %0 = load ptr, ptr %path.addr, align 8
  call void @_ZNSt8functionIFbRKN7httplib8ResponseEEEC2EOS5_(ptr noundef nonnull align 8 dereferenceable(32) %agg.tmp, ptr noundef nonnull align 8 dereferenceable(32) %response_handler) #3
  call void @_ZNSt8functionIFbPKcmEEC2EOS3_(ptr noundef nonnull align 8 dereferenceable(32) %agg.tmp2, ptr noundef nonnull align 8 dereferenceable(32) %content_receiver) #3
  invoke void @_ZN7httplib10ClientImpl3GetERKNSt7__cxx1112basic_stringIcSt11char_traitsIcESaIcEEESt8functionIFbRKNS_8ResponseEEES9_IFbPKcmEE(ptr sret(%"class.httplib::Result") align 8 %agg.result, ptr noundef nonnull align 8 dereferenceable(1000) %call, ptr noundef nonnull align 8 dereferenceable(32) %0, ptr noundef %agg.tmp, ptr noundef %agg.tmp2)
          to label %invoke.cont unwind label %lpad

invoke.cont:                                      ; preds = %entry
  call void @_ZNSt8functionIFbPKcmEED2Ev(ptr noundef nonnull align 8 dereferenceable(32) %agg.tmp2) #3
  call void @_ZNSt8functionIFbRKN7httplib8ResponseEEED2Ev(ptr noundef nonnull align 8 dereferenceable(32) %agg.tmp) #3
  ret void

lpad:                                             ; preds = %entry
  %1 = landingpad { ptr, i32 }
          cleanup
  %2 = extractvalue { ptr, i32 } %1, 0
  store ptr %2, ptr %exn.slot, align 8
  %3 = extractvalue { ptr, i32 } %1, 1
  store i32 %3, ptr %ehselector.slot, align 4
  call void @_ZNSt8functionIFbPKcmEED2Ev(ptr noundef nonnull align 8 dereferenceable(32) %agg.tmp2) #3
  call void @_ZNSt8functionIFbRKN7httplib8ResponseEEED2Ev(ptr noundef nonnull align 8 dereferenceable(32) %agg.tmp) #3
  br label %eh.resume

eh.resume:                                        ; preds = %lpad
  %exn = load ptr, ptr %exn.slot, align 8
  %sel = load i32, ptr %ehselector.slot, align 4
  %lpad.val = insertvalue { ptr, i32 } poison, ptr %exn, 0
  %lpad.val3 = insertvalue { ptr, i32 } %lpad.val, i32 %sel, 1
  resume { ptr, i32 } %lpad.val3
}