; Function Attrs: mustprogress uwtable
define void @_ZN7httplib6Client3GetERKNSt7__cxx1112basic_stringIcSt11char_traitsIcESaIcEEESt8functionIFbRKNS_8ResponseEEES9_IFbPKcmEE(ptr noalias sret(%"class.httplib::Result") align 8 %agg.result, ptr nocapture noundef nonnull readonly align 8 dereferenceable(9) %this, ptr noundef nonnull align 8 dereferenceable(32) %path, ptr nocapture noundef %response_handler, ptr nocapture noundef %content_receiver) local_unnamed_addr #5 align 2 personality ptr @__gxx_personality_v0 {
entry:
  %agg.tmp = alloca %"class.std::function.50", align 8
  %agg.tmp2 = alloca %"class.std::function.58", align 8
  %0 = load ptr, ptr %this, align 8
  %_M_invoker.i = getelementptr inbounds i8, ptr %agg.tmp, i64 24
  %_M_invoker2.i = getelementptr inbounds i8, ptr %response_handler, i64 24
  call void @llvm.memset.p0.i64(ptr noundef nonnull align 8 dereferenceable(24) %agg.tmp, i8 0, i64 24, i1 false)
  %1 = load ptr, ptr %_M_invoker2.i, align 8
  store ptr %1, ptr %_M_invoker.i, align 8
  %_M_manager.i.i.i = getelementptr inbounds i8, ptr %response_handler, i64 16
  %2 = load ptr, ptr %_M_manager.i.i.i, align 8
  %tobool.not.i.i.not.i = icmp eq ptr %2, null
  br i1 %tobool.not.i.i.not.i, label %_ZNSt8functionIFbRKN7httplib8ResponseEEEC2EOS5_.exit, label %if.then.i

if.then.i:                                        ; preds = %entry
  %_M_manager.i.i = getelementptr inbounds i8, ptr %agg.tmp, i64 16
  call void @llvm.memcpy.p0.p0.i64(ptr noundef nonnull align 8 dereferenceable(16) %agg.tmp, ptr noundef nonnull align 8 dereferenceable(16) %response_handler, i64 16, i1 false)
  store ptr %2, ptr %_M_manager.i.i, align 8
  tail call void @llvm.memset.p0.i64(ptr noundef nonnull align 8 dereferenceable(16) %_M_manager.i.i.i, i8 0, i64 16, i1 false)
  br label %_ZNSt8functionIFbRKN7httplib8ResponseEEEC2EOS5_.exit

_ZNSt8functionIFbRKN7httplib8ResponseEEEC2EOS5_.exit: ; preds = %entry, %if.then.i
  %_M_invoker.i1 = getelementptr inbounds i8, ptr %agg.tmp2, i64 24
  %_M_invoker2.i2 = getelementptr inbounds i8, ptr %content_receiver, i64 24
  call void @llvm.memset.p0.i64(ptr noundef nonnull align 8 dereferenceable(24) %agg.tmp2, i8 0, i64 24, i1 false)
  %3 = load ptr, ptr %_M_invoker2.i2, align 8
  store ptr %3, ptr %_M_invoker.i1, align 8
  %_M_manager.i.i.i3 = getelementptr inbounds i8, ptr %content_receiver, i64 16
  %4 = load ptr, ptr %_M_manager.i.i.i3, align 8
  %tobool.not.i.i.not.i4 = icmp eq ptr %4, null
  br i1 %tobool.not.i.i.not.i4, label %_ZNSt8functionIFbPKcmEEC2EOS3_.exit, label %if.then.i5

if.then.i5:                                       ; preds = %_ZNSt8functionIFbRKN7httplib8ResponseEEEC2EOS5_.exit
  %_M_manager.i.i6 = getelementptr inbounds i8, ptr %agg.tmp2, i64 16
  call void @llvm.memcpy.p0.p0.i64(ptr noundef nonnull align 8 dereferenceable(16) %agg.tmp2, ptr noundef nonnull align 8 dereferenceable(16) %content_receiver, i64 16, i1 false)
  store ptr %4, ptr %_M_manager.i.i6, align 8
  tail call void @llvm.memset.p0.i64(ptr noundef nonnull align 8 dereferenceable(16) %_M_manager.i.i.i3, i8 0, i64 16, i1 false)
  br label %_ZNSt8functionIFbPKcmEEC2EOS3_.exit

_ZNSt8functionIFbPKcmEEC2EOS3_.exit:              ; preds = %_ZNSt8functionIFbRKN7httplib8ResponseEEEC2EOS5_.exit, %if.then.i5
  invoke void @_ZN7httplib10ClientImpl3GetERKNSt7__cxx1112basic_stringIcSt11char_traitsIcESaIcEEESt8functionIFbRKNS_8ResponseEEES9_IFbPKcmEE(ptr sret(%"class.httplib::Result") align 8 %agg.result, ptr noundef nonnull align 8 dereferenceable(1000) %0, ptr noundef nonnull align 8 dereferenceable(32) %path, ptr noundef nonnull %agg.tmp, ptr noundef nonnull %agg.tmp2)
          to label %invoke.cont unwind label %lpad

invoke.cont:                                      ; preds = %_ZNSt8functionIFbPKcmEEC2EOS3_.exit
  %_M_manager.i.i7 = getelementptr inbounds i8, ptr %agg.tmp2, i64 16
  %5 = load ptr, ptr %_M_manager.i.i7, align 8
  %tobool.not.i.i = icmp eq ptr %5, null
  br i1 %tobool.not.i.i, label %_ZNSt8functionIFbPKcmEED2Ev.exit, label %if.then.i.i

if.then.i.i:                                      ; preds = %invoke.cont
  %call.i.i = invoke noundef zeroext i1 %5(ptr noundef nonnull align 8 dereferenceable(16) %agg.tmp2, ptr noundef nonnull align 8 dereferenceable(16) %agg.tmp2, i32 noundef 3)
          to label %_ZNSt8functionIFbPKcmEED2Ev.exit unwind label %terminate.lpad.i.i

terminate.lpad.i.i:                               ; preds = %if.then.i.i
  %6 = landingpad { ptr, i32 }
          catch ptr null
  %7 = extractvalue { ptr, i32 } %6, 0
  call void @__clang_call_terminate(ptr %7) #40
  unreachable

_ZNSt8functionIFbPKcmEED2Ev.exit:                 ; preds = %invoke.cont, %if.then.i.i
  %_M_manager.i.i8 = getelementptr inbounds i8, ptr %agg.tmp, i64 16
  %8 = load ptr, ptr %_M_manager.i.i8, align 8
  %tobool.not.i.i9 = icmp eq ptr %8, null
  br i1 %tobool.not.i.i9, label %_ZNSt8functionIFbRKN7httplib8ResponseEEED2Ev.exit, label %if.then.i.i10

if.then.i.i10:                                    ; preds = %_ZNSt8functionIFbPKcmEED2Ev.exit
  %call.i.i11 = invoke noundef zeroext i1 %8(ptr noundef nonnull align 8 dereferenceable(16) %agg.tmp, ptr noundef nonnull align 8 dereferenceable(16) %agg.tmp, i32 noundef 3)
          to label %_ZNSt8functionIFbRKN7httplib8ResponseEEED2Ev.exit unwind label %terminate.lpad.i.i12

terminate.lpad.i.i12:                             ; preds = %if.then.i.i10
  %9 = landingpad { ptr, i32 }
          catch ptr null
  %10 = extractvalue { ptr, i32 } %9, 0
  call void @__clang_call_terminate(ptr %10) #40
  unreachable

_ZNSt8functionIFbRKN7httplib8ResponseEEED2Ev.exit: ; preds = %_ZNSt8functionIFbPKcmEED2Ev.exit, %if.then.i.i10
  ret void

lpad:                                             ; preds = %_ZNSt8functionIFbPKcmEEC2EOS3_.exit
  %11 = landingpad { ptr, i32 }
          cleanup
  %_M_manager.i.i13 = getelementptr inbounds i8, ptr %agg.tmp2, i64 16
  %12 = load ptr, ptr %_M_manager.i.i13, align 8
  %tobool.not.i.i14 = icmp eq ptr %12, null
  br i1 %tobool.not.i.i14, label %_ZNSt8functionIFbPKcmEED2Ev.exit18, label %if.then.i.i15

if.then.i.i15:                                    ; preds = %lpad
  %call.i.i16 = invoke noundef zeroext i1 %12(ptr noundef nonnull align 8 dereferenceable(16) %agg.tmp2, ptr noundef nonnull align 8 dereferenceable(16) %agg.tmp2, i32 noundef 3)
          to label %_ZNSt8functionIFbPKcmEED2Ev.exit18 unwind label %terminate.lpad.i.i17

terminate.lpad.i.i17:                             ; preds = %if.then.i.i15
  %13 = landingpad { ptr, i32 }
          catch ptr null
  %14 = extractvalue { ptr, i32 } %13, 0
  call void @__clang_call_terminate(ptr %14) #40
  unreachable

_ZNSt8functionIFbPKcmEED2Ev.exit18:               ; preds = %lpad, %if.then.i.i15
  %_M_manager.i.i19 = getelementptr inbounds i8, ptr %agg.tmp, i64 16
  %15 = load ptr, ptr %_M_manager.i.i19, align 8
  %tobool.not.i.i20 = icmp eq ptr %15, null
  br i1 %tobool.not.i.i20, label %_ZNSt8functionIFbRKN7httplib8ResponseEEED2Ev.exit24, label %if.then.i.i21

if.then.i.i21:                                    ; preds = %_ZNSt8functionIFbPKcmEED2Ev.exit18
  %call.i.i22 = invoke noundef zeroext i1 %15(ptr noundef nonnull align 8 dereferenceable(16) %agg.tmp, ptr noundef nonnull align 8 dereferenceable(16) %agg.tmp, i32 noundef 3)
          to label %_ZNSt8functionIFbRKN7httplib8ResponseEEED2Ev.exit24 unwind label %terminate.lpad.i.i23

terminate.lpad.i.i23:                             ; preds = %if.then.i.i21
  %16 = landingpad { ptr, i32 }
          catch ptr null
  %17 = extractvalue { ptr, i32 } %16, 0
  call void @__clang_call_terminate(ptr %17) #40
  unreachable

_ZNSt8functionIFbRKN7httplib8ResponseEEED2Ev.exit24: ; preds = %_ZNSt8functionIFbPKcmEED2Ev.exit18, %if.then.i.i21
  resume { ptr, i32 } %11
}